target datalayout = "e-m:e-p270:32:32-p271:32:32-p272:64:64-i64:64-i128:128-f80:128-n8:16:32:64-S128"
target triple = "x86_64-pc-linux-gnu"

%struct._value_string_ext = type { ptr, i32, i32, ptr, ptr }

@gsm_common_elem_strings_ext = hidden global %struct._value_string_ext { ptr @_try_val_to_str_ext_init, i32 0, i32 18, ptr @gsm_common_elem_strings, ptr @.str }, align 8
@.str.32 = private unnamed_addr constant [1 x i8] zeroinitializer, align 1
@ett_gsm_common_elem = hidden global [19 x i32] zeroinitializer, align 16
@hf_gsm_a_b8spare = hidden global i32 0, align 4
@hf_gsm_a_MSC_rev = internal global i32 0, align 4
@hf_gsm_a_ES_IND = internal global i32 0, align 4
@hf_gsm_a_A5_1_algorithm_sup = internal global i32 0, align 4
@hf_gsm_a_RF_power_capability = internal global i32 0, align 4

; Function Attrs: null_pointer_is_valid sspstrong uwtable
define zeroext i16 @de_ms_cm_1(ptr noundef %0, ptr noundef %1, ptr noundef %2, i32 noundef %3, i32 noundef %4, ptr noundef %5, i32 noundef %6) #1 {
  %8 = alloca ptr, align 8
  %9 = alloca ptr, align 8
  %10 = alloca ptr, align 8
  %11 = alloca i32, align 4
  %12 = alloca i32, align 4
  %13 = alloca ptr, align 8
  %14 = alloca i32, align 4
  %15 = alloca i32, align 4
  %16 = alloca ptr, align 8
  store ptr %0, ptr %8, align 8
  store ptr %1, ptr %9, align 8
  store ptr %2, ptr %10, align 8
  store i32 %3, ptr %11, align 4
  store i32 %4, ptr %12, align 4
  store ptr %5, ptr %13, align 8
  store i32 %6, ptr %14, align 4
  call void @llvm.lifetime.start.p0(i64 4, ptr %15) #9
  call void @llvm.lifetime.start.p0(i64 8, ptr %16) #9
  %17 = load i32, ptr %11, align 4
  store i32 %17, ptr %15, align 4
  %18 = load ptr, ptr %9, align 8
  %19 = load ptr, ptr %8, align 8
  %20 = load i32, ptr %15, align 4
  %21 = load i32, ptr getelementptr ([19 x i32], ptr @ett_gsm_common_elem, i64 0, i64 4), align 16
  %22 = call ptr @val_to_str_ext_const(i32 noundef 4, ptr noundef @gsm_common_elem_strings_ext, ptr noundef @.str.32)
  %23 = call ptr @proto_tree_add_subtree(ptr noundef %18, ptr noundef %19, i32 noundef %20, i32 noundef 1, i32 noundef %21, ptr noundef null, ptr noundef %22)
  store ptr %23, ptr %16, align 8
  %24 = load ptr, ptr %16, align 8
  %25 = load i32, ptr @hf_gsm_a_b8spare, align 4
  %26 = load ptr, ptr %8, align 8
  %27 = load i32, ptr %15, align 4
  %28 = call ptr @proto_tree_add_item(ptr noundef %24, i32 noundef %25, ptr noundef %26, i32 noundef %27, i32 noundef 1, i32 noundef 0)
  %29 = load ptr, ptr %16, align 8
  %30 = load i32, ptr @hf_gsm_a_MSC_rev, align 4
  %31 = load ptr, ptr %8, align 8
  %32 = load i32, ptr %15, align 4
  %33 = call ptr @proto_tree_add_item(ptr noundef %29, i32 noundef %30, ptr noundef %31, i32 noundef %32, i32 noundef 1, i32 noundef 0)
  %34 = load ptr, ptr %16, align 8
  %35 = load i32, ptr @hf_gsm_a_ES_IND, align 4
  %36 = load ptr, ptr %8, align 8
  %37 = load i32, ptr %15, align 4
  %38 = call ptr @proto_tree_add_item(ptr noundef %34, i32 noundef %35, ptr noundef %36, i32 noundef %37, i32 noundef 1, i32 noundef 0)
  %39 = load ptr, ptr %16, align 8
  %40 = load i32, ptr @hf_gsm_a_A5_1_algorithm_sup, align 4
  %41 = load ptr, ptr %8, align 8
  %42 = load i32, ptr %15, align 4
  %43 = call ptr @proto_tree_add_item(ptr noundef %39, i32 noundef %40, ptr noundef %41, i32 noundef %42, i32 noundef 1, i32 noundef 0)
  %44 = load ptr, ptr %16, align 8
  %45 = load i32, ptr @hf_gsm_a_RF_power_capability, align 4
  %46 = load ptr, ptr %8, align 8
  %47 = load i32, ptr %15, align 4
  %48 = call ptr @proto_tree_add_item(ptr noundef %44, i32 noundef %45, ptr noundef %46, i32 noundef %47, i32 noundef 1, i32 noundef 0)
  %49 = load i32, ptr %15, align 4
  %50 = add i32 %49, 1
  store i32 %50, ptr %15, align 4
  %51 = load i32, ptr %15, align 4
  %52 = load i32, ptr %11, align 4
  %53 = sub i32 %51, %52
  %54 = trunc i32 %53 to i16
  call void @llvm.lifetime.end.p0(i64 8, ptr %16) #9
  call void @llvm.lifetime.end.p0(i64 4, ptr %15) #9
  ret i16 %54
}