; Function Attrs: null_pointer_is_valid sspstrong uwtable
define noundef zeroext i16 @de_ms_cm_1(ptr noundef %0, ptr noundef %1, ptr readnone captures(none) %2, i32 noundef %3, i32 %4, ptr readnone captures(none) %5, i32 %6) #1 {
  %8 = load i32, ptr getelementptr inbounds nuw (i8, ptr @ett_gsm_common_elem, i64 16), align 16
  %9 = tail call ptr @val_to_str_ext_const(i32 noundef 4, ptr noundef nonnull @gsm_common_elem_strings_ext, ptr noundef nonnull @.str.32)
  %10 = tail call ptr @proto_tree_add_subtree(ptr noundef %1, ptr noundef %0, i32 noundef %3, i32 noundef 1, i32 noundef %8, ptr noundef null, ptr noundef %9)
  %11 = load i32, ptr @hf_gsm_a_b8spare, align 4
  %12 = tail call ptr @proto_tree_add_item(ptr noundef %10, i32 noundef %11, ptr noundef %0, i32 noundef %3, i32 noundef 1, i32 noundef 0)
  %13 = load i32, ptr @hf_gsm_a_MSC_rev, align 4
  %14 = tail call ptr @proto_tree_add_item(ptr noundef %10, i32 noundef %13, ptr noundef %0, i32 noundef %3, i32 noundef 1, i32 noundef 0)
  %15 = load i32, ptr @hf_gsm_a_ES_IND, align 4
  %16 = tail call ptr @proto_tree_add_item(ptr noundef %10, i32 noundef %15, ptr noundef %0, i32 noundef %3, i32 noundef 1, i32 noundef 0)
  %17 = load i32, ptr @hf_gsm_a_A5_1_algorithm_sup, align 4
  %18 = tail call ptr @proto_tree_add_item(ptr noundef %10, i32 noundef %17, ptr noundef %0, i32 noundef %3, i32 noundef 1, i32 noundef 0)
  %19 = load i32, ptr @hf_gsm_a_RF_power_capability, align 4
  %20 = tail call ptr @proto_tree_add_item(ptr noundef %10, i32 noundef %19, ptr noundef %0, i32 noundef %3, i32 noundef 1, i32 noundef 0)
  ret i16 1
}